target datalayout = "e-m:e-p270:32:32-p271:32:32-p272:64:64-i64:64-i128:128-f80:128-n8:16:32:64-S128"
target triple = "x86_64-pc-linux-gnu"

%struct.hwloc_topology = type { i32, i32, i32, ptr, ptr, i64, [20 x i32], [20 x i32], i64, i64, i32, ptr, i64, ptr, i64, [6 x %struct.hwloc_special_level_s], ptr, ptr, %struct.hwloc_binding_hooks, %struct.hwloc_topology_support, %struct.hwloc_infos_s, ptr, ptr, i32, ptr, ptr, i32, i32, ptr, i32, i32, ptr, i32, i32, i32, [5 x float], i32, ptr, ptr, i32, i32, ptr, i32, %struct.hwloc_numanode_attr_s, i32, i32, ptr, i64, i32, ptr, ptr, ptr }
%struct.hwloc_special_level_s = type { i32, ptr, ptr, ptr }
%struct.hwloc_binding_hooks = type { ptr, ptr, ptr, ptr, ptr, ptr, ptr, ptr, ptr, ptr, ptr, ptr, ptr, ptr, ptr, ptr, ptr, ptr, ptr, ptr, ptr, ptr, ptr, ptr }
%struct.hwloc_topology_support = type { ptr, ptr, ptr, ptr }
%struct.hwloc_infos_s = type { ptr, i32, i32 }
%struct.hwloc_numanode_attr_s = type { i64, i32, ptr }
%struct.hwloc_obj = type { i32, ptr, i32, ptr, i64, ptr, i32, i32, ptr, ptr, ptr, i32, ptr, ptr, i32, ptr, ptr, ptr, i32, i32, ptr, i32, ptr, i32, ptr, ptr, ptr, ptr, ptr, %struct.hwloc_infos_s, ptr, i64 }

; Function Attrs: inlinehint nounwind willreturn memory(read) uwtable
define internal ptr @hwloc_get_root_obj(ptr noundef %0) #3 {
  %2 = alloca ptr, align 8
  store ptr %0, ptr %2, align 8, !tbaa !3
  %3 = load ptr, ptr %2, align 8, !tbaa !3
  %4 = call ptr @hwloc_get_obj_by_depth(ptr noundef %3, i32 noundef 0, i32 noundef 0) #15
  ret ptr %4
}

; Function Attrs: nounwind uwtable
define i32 @hwloc_topology_allow(ptr noundef %0, ptr noundef %1, ptr noundef %2, i64 noundef %3) #0 {
  %5 = alloca i32, align 4
  %6 = alloca ptr, align 8
  %7 = alloca ptr, align 8
  %8 = alloca ptr, align 8
  %9 = alloca i64, align 8
  store ptr %0, ptr %6, align 8, !tbaa !3
  store ptr %1, ptr %7, align 8, !tbaa !179
  store ptr %2, ptr %8, align 8, !tbaa !179
  store i64 %3, ptr %9, align 8, !tbaa !36
  %10 = load ptr, ptr %6, align 8, !tbaa !3
  %11 = getelementptr inbounds nuw %struct.hwloc_topology, ptr %10, i32 0, i32 8
  %12 = load i64, ptr %11, align 8, !tbaa !86
  %13 = and i64 %12, 2
  %14 = icmp ne i64 %13, 0
  br i1 %14, label %16, label %15

15:                                               ; preds = %4
  br label %152

16:                                               ; preds = %4
  %17 = load ptr, ptr %6, align 8, !tbaa !3
  %18 = getelementptr inbounds nuw %struct.hwloc_topology, ptr %17, i32 0, i32 5
  %19 = load i64, ptr %18, align 8, !tbaa !88
  %20 = and i64 %19, 1
  %21 = icmp ne i64 %20, 0
  br i1 %21, label %23, label %22

22:                                               ; preds = %16
  br label %152

23:                                               ; preds = %16
  %24 = load i64, ptr %9, align 8, !tbaa !36
  %25 = and i64 %24, -8
  %26 = icmp ne i64 %25, 0
  br i1 %26, label %27, label %28

27:                                               ; preds = %23
  br label %152

28:                                               ; preds = %23
  %29 = load i64, ptr %9, align 8, !tbaa !36
  switch i64 %29, label %150 [
    i64 1, label %30
    i64 2, label %54
    i64 4, label %105
  ]

30:                                               ; preds = %28
  %31 = load ptr, ptr %7, align 8, !tbaa !179
  %32 = icmp ne ptr %31, null
  br i1 %32, label %36, label %33

33:                                               ; preds = %30
  %34 = load ptr, ptr %8, align 8, !tbaa !179
  %35 = icmp ne ptr %34, null
  br i1 %35, label %36, label %37

36:                                               ; preds = %33, %30
  br label %152

37:                                               ; preds = %33
  %38 = load ptr, ptr %6, align 8, !tbaa !3
  %39 = getelementptr inbounds nuw %struct.hwloc_topology, ptr %38, i32 0, i32 16
  %40 = load ptr, ptr %39, align 8, !tbaa !94
  %41 = load ptr, ptr %6, align 8, !tbaa !3
  %42 = call ptr @hwloc_get_root_obj(ptr noundef %41) #15
  %43 = getelementptr inbounds nuw %struct.hwloc_obj, ptr %42, i32 0, i32 26
  %44 = load ptr, ptr %43, align 8, !tbaa !53
  %45 = call i32 @hwloc_bitmap_copy(ptr noundef %40, ptr noundef %44)
  %46 = load ptr, ptr %6, align 8, !tbaa !3
  %47 = getelementptr inbounds nuw %struct.hwloc_topology, ptr %46, i32 0, i32 17
  %48 = load ptr, ptr %47, align 8, !tbaa !95
  %49 = load ptr, ptr %6, align 8, !tbaa !3
  %50 = call ptr @hwloc_get_root_obj(ptr noundef %49) #15
  %51 = getelementptr inbounds nuw %struct.hwloc_obj, ptr %50, i32 0, i32 28
  %52 = load ptr, ptr %51, align 8, !tbaa !77
  %53 = call i32 @hwloc_bitmap_copy(ptr noundef %48, ptr noundef %52)
  br label %151

54:                                               ; preds = %28
  %55 = load ptr, ptr %7, align 8, !tbaa !179
  %56 = icmp ne ptr %55, null
  br i1 %56, label %60, label %57

57:                                               ; preds = %54
  %58 = load ptr, ptr %8, align 8, !tbaa !179
  %59 = icmp ne ptr %58, null
  br i1 %59, label %60, label %61

60:                                               ; preds = %57, %54
  br label %152

61:                                               ; preds = %57
  %62 = load ptr, ptr %6, align 8, !tbaa !3
  %63 = getelementptr inbounds nuw %struct.hwloc_topology, ptr %62, i32 0, i32 8
  %64 = load i64, ptr %63, align 8, !tbaa !86
  %65 = and i64 %64, 1
  %66 = icmp ne i64 %65, 0
  br i1 %66, label %68, label %67

67:                                               ; preds = %61
  br label %152

68:                                               ; preds = %61
  %69 = load ptr, ptr %6, align 8, !tbaa !3
  %70 = getelementptr inbounds nuw %struct.hwloc_topology, ptr %69, i32 0, i32 18
  %71 = getelementptr inbounds nuw %struct.hwloc_binding_hooks, ptr %70, i32 0, i32 23
  %72 = load ptr, ptr %71, align 8, !tbaa !217
  %73 = icmp ne ptr %72, null
  br i1 %73, label %76, label %74

74:                                               ; preds = %68
  %75 = call ptr @__errno_location() #16
  store i32 38, ptr %75, align 4, !tbaa !33
  br label %154

76:                                               ; preds = %68
  %77 = load ptr, ptr %6, align 8, !tbaa !3
  %78 = getelementptr inbounds nuw %struct.hwloc_topology, ptr %77, i32 0, i32 18
  %79 = getelementptr inbounds nuw %struct.hwloc_binding_hooks, ptr %78, i32 0, i32 23
  %80 = load ptr, ptr %79, align 8, !tbaa !217
  %81 = load ptr, ptr %6, align 8, !tbaa !3
  %82 = call i32 %80(ptr noundef %81)
  %83 = load ptr, ptr %6, align 8, !tbaa !3
  %84 = getelementptr inbounds nuw %struct.hwloc_topology, ptr %83, i32 0, i32 16
  %85 = load ptr, ptr %84, align 8, !tbaa !94
  %86 = load ptr, ptr %6, align 8, !tbaa !3
  %87 = getelementptr inbounds nuw %struct.hwloc_topology, ptr %86, i32 0, i32 16
  %88 = load ptr, ptr %87, align 8, !tbaa !94
  %89 = load ptr, ptr %6, align 8, !tbaa !3
  %90 = call ptr @hwloc_get_root_obj(ptr noundef %89) #15
  %91 = getelementptr inbounds nuw %struct.hwloc_obj, ptr %90, i32 0, i32 25
  %92 = load ptr, ptr %91, align 8, !tbaa !39
  %93 = call i32 @hwloc_bitmap_and(ptr noundef %85, ptr noundef %88, ptr noundef %92)
  %94 = load ptr, ptr %6, align 8, !tbaa !3
  %95 = getelementptr inbounds nuw %struct.hwloc_topology, ptr %94, i32 0, i32 17
  %96 = load ptr, ptr %95, align 8, !tbaa !95
  %97 = load ptr, ptr %6, align 8, !tbaa !3
  %98 = getelementptr inbounds nuw %struct.hwloc_topology, ptr %97, i32 0, i32 17
  %99 = load ptr, ptr %98, align 8, !tbaa !95
  %100 = load ptr, ptr %6, align 8, !tbaa !3
  %101 = call ptr @hwloc_get_root_obj(ptr noundef %100) #15
  %102 = getelementptr inbounds nuw %struct.hwloc_obj, ptr %101, i32 0, i32 27
  %103 = load ptr, ptr %102, align 8, !tbaa !76
  %104 = call i32 @hwloc_bitmap_and(ptr noundef %96, ptr noundef %99, ptr noundef %103)
  br label %151

105:                                              ; preds = %28
  %106 = load ptr, ptr %7, align 8, !tbaa !179
  %107 = icmp ne ptr %106, null
  br i1 %107, label %108, label %127

108:                                              ; preds = %105
  %109 = load ptr, ptr %6, align 8, !tbaa !3
  %110 = call ptr @hwloc_get_root_obj(ptr noundef %109) #15
  %111 = getelementptr inbounds nuw %struct.hwloc_obj, ptr %110, i32 0, i32 25
  %112 = load ptr, ptr %111, align 8, !tbaa !39
  %113 = load ptr, ptr %7, align 8, !tbaa !179
  %114 = call i32 @hwloc_bitmap_intersects(ptr noundef %112, ptr noundef %113) #15
  %115 = icmp ne i32 %114, 0
  br i1 %115, label %117, label %116

116:                                              ; preds = %108
  br label %152

117:                                              ; preds = %108
  %118 = load ptr, ptr %6, align 8, !tbaa !3
  %119 = getelementptr inbounds nuw %struct.hwloc_topology, ptr %118, i32 0, i32 16
  %120 = load ptr, ptr %119, align 8, !tbaa !94
  %121 = load ptr, ptr %6, align 8, !tbaa !3
  %122 = call ptr @hwloc_get_root_obj(ptr noundef %121) #15
  %123 = getelementptr inbounds nuw %struct.hwloc_obj, ptr %122, i32 0, i32 25
  %124 = load ptr, ptr %123, align 8, !tbaa !39
  %125 = load ptr, ptr %7, align 8, !tbaa !179
  %126 = call i32 @hwloc_bitmap_and(ptr noundef %120, ptr noundef %124, ptr noundef %125)
  br label %127

127:                                              ; preds = %117, %105
  %128 = load ptr, ptr %8, align 8, !tbaa !179
  %129 = icmp ne ptr %128, null
  br i1 %129, label %130, label %149

130:                                              ; preds = %127
  %131 = load ptr, ptr %6, align 8, !tbaa !3
  %132 = call ptr @hwloc_get_root_obj(ptr noundef %131) #15
  %133 = getelementptr inbounds nuw %struct.hwloc_obj, ptr %132, i32 0, i32 27
  %134 = load ptr, ptr %133, align 8, !tbaa !76
  %135 = load ptr, ptr %8, align 8, !tbaa !179
  %136 = call i32 @hwloc_bitmap_intersects(ptr noundef %134, ptr noundef %135) #15
  %137 = icmp ne i32 %136, 0
  br i1 %137, label %139, label %138

138:                                              ; preds = %130
  br label %152

139:                                              ; preds = %130
  %140 = load ptr, ptr %6, align 8, !tbaa !3
  %141 = getelementptr inbounds nuw %struct.hwloc_topology, ptr %140, i32 0, i32 17
  %142 = load ptr, ptr %141, align 8, !tbaa !95
  %143 = load ptr, ptr %6, align 8, !tbaa !3
  %144 = call ptr @hwloc_get_root_obj(ptr noundef %143) #15
  %145 = getelementptr inbounds nuw %struct.hwloc_obj, ptr %144, i32 0, i32 27
  %146 = load ptr, ptr %145, align 8, !tbaa !76
  %147 = load ptr, ptr %8, align 8, !tbaa !179
  %148 = call i32 @hwloc_bitmap_and(ptr noundef %142, ptr noundef %146, ptr noundef %147)
  br label %149

149:                                              ; preds = %139, %127
  br label %151

150:                                              ; preds = %28
  br label %152

151:                                              ; preds = %149, %76, %37
  store i32 0, ptr %5, align 4
  br label %155

152:                                              ; preds = %150, %138, %116, %67, %60, %36, %27, %22, %15
  %153 = call ptr @__errno_location() #16
  store i32 22, ptr %153, align 4, !tbaa !33
  br label %154

154:                                              ; preds = %152, %74
  store i32 -1, ptr %5, align 4
  br label %155

155:                                              ; preds = %154, %151
  %156 = load i32, ptr %5, align 4
  ret i32 %156
}