; Function Attrs: nounwind uwtable
define range(i32 -1, 1) i32 @hwloc_topology_allow(ptr noundef %0, ptr noundef %1, ptr noundef %2, i64 noundef %3) local_unnamed_addr #5 {
  %5 = getelementptr inbounds nuw i8, ptr %0, i64 200
  %6 = load i64, ptr %5, align 8, !tbaa !90
  %7 = and i64 %6, 2
  %.not = icmp eq i64 %7, 0
  br i1 %.not, label %72, label %8

8:                                                ; preds = %4
  %9 = getelementptr inbounds nuw i8, ptr %0, i64 32
  %10 = load i64, ptr %9, align 8, !tbaa !92
  %11 = and i64 %10, 1
  %.not40 = icmp ne i64 %11, 0
  %.not41 = icmp ult i64 %3, 8
  %or.cond48 = and i1 %.not41, %.not40
  br i1 %or.cond48, label %12, label %72

12:                                               ; preds = %8
  switch i64 %3, label %72 [
    i64 1, label %13
    i64 2, label %29
    i64 4, label %52
  ]

13:                                               ; preds = %12
  %14 = icmp ne ptr %1, null
  %15 = icmp ne ptr %2, null
  %or.cond = or i1 %14, %15
  br i1 %or.cond, label %72, label %16

16:                                               ; preds = %13
  %17 = getelementptr inbounds nuw i8, ptr %0, i64 448
  %18 = load ptr, ptr %17, align 8, !tbaa !100
  %19 = tail call ptr @hwloc_get_obj_by_depth(ptr noundef nonnull readonly %0, i32 noundef 0, i32 noundef 0) #36
  %20 = getelementptr inbounds nuw i8, ptr %19, i64 192
  %21 = load ptr, ptr %20, align 8, !tbaa !54
  %22 = tail call i32 @hwloc_bitmap_copy(ptr noundef %18, ptr noundef %21) #34
  %23 = getelementptr inbounds nuw i8, ptr %0, i64 456
  %24 = load ptr, ptr %23, align 8, !tbaa !101
  %25 = tail call ptr @hwloc_get_obj_by_depth(ptr noundef nonnull readonly %0, i32 noundef 0, i32 noundef 0) #36
  %26 = getelementptr inbounds nuw i8, ptr %25, i64 208
  %27 = load ptr, ptr %26, align 8, !tbaa !84
  %28 = tail call i32 @hwloc_bitmap_copy(ptr noundef %24, ptr noundef %27) #34
  br label %74

29:                                               ; preds = %12
  %30 = icmp ne ptr %1, null
  %31 = icmp ne ptr %2, null
  %or.cond3 = or i1 %30, %31
  %32 = and i64 %6, 1
  %.not46 = icmp eq i64 %32, 0
  %or.cond49 = or i1 %or.cond3, %.not46
  br i1 %or.cond49, label %72, label %33

33:                                               ; preds = %29
  %34 = getelementptr inbounds nuw i8, ptr %0, i64 648
  %35 = load ptr, ptr %34, align 8, !tbaa !209
  %.not47 = icmp eq ptr %35, null
  br i1 %.not47, label %36, label %38

36:                                               ; preds = %33
  %37 = tail call ptr @__errno_location() #37
  store i32 38, ptr %37, align 4, !tbaa !31
  br label %74

38:                                               ; preds = %33
  %39 = tail call i32 %35(ptr noundef nonnull %0) #34
  %40 = getelementptr inbounds nuw i8, ptr %0, i64 448
  %41 = load ptr, ptr %40, align 8, !tbaa !100
  %42 = tail call ptr @hwloc_get_obj_by_depth(ptr noundef nonnull readonly %0, i32 noundef 0, i32 noundef 0) #36
  %43 = getelementptr inbounds nuw i8, ptr %42, i64 184
  %44 = load ptr, ptr %43, align 8, !tbaa !45
  %45 = tail call i32 @hwloc_bitmap_and(ptr noundef %41, ptr noundef %41, ptr noundef %44) #34
  %46 = getelementptr inbounds nuw i8, ptr %0, i64 456
  %47 = load ptr, ptr %46, align 8, !tbaa !101
  %48 = tail call ptr @hwloc_get_obj_by_depth(ptr noundef nonnull readonly %0, i32 noundef 0, i32 noundef 0) #36
  %49 = getelementptr inbounds nuw i8, ptr %48, i64 200
  %50 = load ptr, ptr %49, align 8, !tbaa !83
  %51 = tail call i32 @hwloc_bitmap_and(ptr noundef %47, ptr noundef %47, ptr noundef %50) #34
  br label %74

52:                                               ; preds = %12
  %.not42 = icmp eq ptr %1, null
  br i1 %.not42, label %62, label %53

53:                                               ; preds = %52
  %54 = tail call ptr @hwloc_get_obj_by_depth(ptr noundef nonnull readonly %0, i32 noundef 0, i32 noundef 0) #36
  %55 = getelementptr inbounds nuw i8, ptr %54, i64 184
  %56 = load ptr, ptr %55, align 8, !tbaa !45
  %57 = tail call i32 @hwloc_bitmap_intersects(ptr noundef %56, ptr noundef nonnull %1) #36
  %.not43 = icmp eq i32 %57, 0
  br i1 %.not43, label %72, label %58

58:                                               ; preds = %53
  %59 = getelementptr inbounds nuw i8, ptr %0, i64 448
  %60 = load ptr, ptr %59, align 8, !tbaa !100
  %61 = tail call i32 @hwloc_bitmap_and(ptr noundef %60, ptr noundef %56, ptr noundef nonnull %1) #34
  br label %62

62:                                               ; preds = %58, %52
  %.not44 = icmp eq ptr %2, null
  br i1 %.not44, label %74, label %63

63:                                               ; preds = %62
  %64 = tail call ptr @hwloc_get_obj_by_depth(ptr noundef nonnull readonly %0, i32 noundef 0, i32 noundef 0) #36
  %65 = getelementptr inbounds nuw i8, ptr %64, i64 200
  %66 = load ptr, ptr %65, align 8, !tbaa !83
  %67 = tail call i32 @hwloc_bitmap_intersects(ptr noundef %66, ptr noundef nonnull %2) #36
  %.not45 = icmp eq i32 %67, 0
  br i1 %.not45, label %72, label %68

68:                                               ; preds = %63
  %69 = getelementptr inbounds nuw i8, ptr %0, i64 456
  %70 = load ptr, ptr %69, align 8, !tbaa !101
  %71 = tail call i32 @hwloc_bitmap_and(ptr noundef %70, ptr noundef %66, ptr noundef nonnull %2) #34
  br label %74

72:                                               ; preds = %12, %63, %53, %29, %13, %8, %4
  %73 = tail call ptr @__errno_location() #37
  store i32 22, ptr %73, align 4, !tbaa !31
  br label %74

74:                                               ; preds = %36, %72, %16, %38, %68, %62
  %.0 = phi i32 [ 0, %62 ], [ 0, %68 ], [ 0, %38 ], [ 0, %16 ], [ -1, %72 ], [ -1, %36 ]
  ret i32 %.0
}